target datalayout = "e-m:e-p270:32:32-p271:32:32-p272:64:64-i64:64-i128:128-f80:128-n8:16:32:64-S128"
target triple = "x86_64-pc-linux-gnu"

%struct.AVFormatContext = type { ptr, ptr, ptr, ptr, ptr, i32, i32, ptr, i32, ptr, i32, ptr, ptr, i64, i64, i64, i32, i32, i32, i64, i64, ptr, i32, i32, ptr, i32, i32, i32, i32, ptr, i64, i32, i32, %struct.AVIOInterruptCB, i32, i32, i32, i32, i64, i32, i32, i32, i32, i32, i32, i32, i32, i32, i32, i32, i32, i64, i32, i32, i32, i32, i32, ptr, ptr, ptr, ptr, i32, ptr, ptr, ptr, ptr, i32, ptr, ptr, i64, ptr, ptr, ptr, i64 }
%struct.AVIOInterruptCB = type { ptr, ptr }
%struct.RTSPState = type { ptr, ptr, i32, ptr, i32, i64, i32, [512 x i8], i32, i64, i32, i32, i32, [64 x i8], [128 x i8], %struct.HTTPAuthState, [2048 x i8], ptr, i32, ptr, ptr, [1024 x i8], ptr, i64, [4096 x i8], ptr, i32, i32, ptr, i32, i32, ptr, i32, i64, ptr, i32, i32, i32, i32, i32, i32, i32, i32, i32, i32, i64, i32, ptr, [4 x i8], i32, i32, ptr }
%struct.HTTPAuthState = type { i32, [200 x i8], %struct.DigestParams, i32 }
%struct.DigestParams = type { [300 x i8], [10 x i8], [30 x i8], [300 x i8], [10 x i8], i32 }
%struct.RTSPStatusMessage = type { i32, ptr }

@.str.34 = private unnamed_addr constant [17 x i8] c"RTSP/1.0 %d %s\0D\0A\00", align 1
@.str.35 = private unnamed_addr constant [11 x i8] c"CSeq: %d\0D\0A\00", align 1
@.str.36 = private unnamed_addr constant [13 x i8] c"Server: %s\0D\0A\00", align 1
@.str.37 = private unnamed_addr constant [13 x i8] c"Lavf62.0.102\00", align 1
@.str.38 = private unnamed_addr constant [3 x i8] c"\0D\0A\00", align 1
@.str.39 = private unnamed_addr constant [21 x i8] c"Sending response:\0A%s\00", align 1

; Function Attrs: inlinehint nounwind uwtable
define internal i32 @ffurl_write(ptr noundef %0, ptr noundef %1, i32 noundef %2) #3 {
  %4 = alloca ptr, align 8
  %5 = alloca ptr, align 8
  %6 = alloca i32, align 4
  store ptr %0, ptr %4, align 8, !tbaa !135
  store ptr %1, ptr %5, align 8, !tbaa !40
  store i32 %2, ptr %6, align 4, !tbaa !28
  %7 = load ptr, ptr %4, align 8, !tbaa !135
  %8 = load ptr, ptr %5, align 8, !tbaa !40
  %9 = load i32, ptr %6, align 4, !tbaa !28
  %10 = call i32 @ffurl_write2(ptr noundef %7, ptr noundef %8, i32 noundef %9)
  ret i32 %10
}

; Function Attrs: nounwind uwtable
define internal i32 @rtsp_send_reply(ptr noundef %0, i32 noundef %1, ptr noundef %2, i16 noundef zeroext %3) #0 {
  %5 = alloca i32, align 4
  %6 = alloca ptr, align 8
  %7 = alloca i32, align 4
  %8 = alloca ptr, align 8
  %9 = alloca i16, align 2
  %10 = alloca ptr, align 8
  %11 = alloca [4096 x i8], align 16
  %12 = alloca i32, align 4
  %13 = alloca i32, align 4
  store ptr %0, ptr %6, align 8, !tbaa !4
  store i32 %1, ptr %7, align 4, !tbaa !28
  store ptr %2, ptr %8, align 8, !tbaa !40
  store i16 %3, ptr %9, align 2, !tbaa !51
  call void @llvm.lifetime.start.p0(i64 8, ptr %10) #10
  %14 = load ptr, ptr %6, align 8, !tbaa !4
  %15 = getelementptr inbounds nuw %struct.AVFormatContext, ptr %14, i32 0, i32 3
  %16 = load ptr, ptr %15, align 8, !tbaa !9
  store ptr %16, ptr %10, align 8, !tbaa !26
  call void @llvm.lifetime.start.p0(i64 4096, ptr %11) #10
  call void @llvm.lifetime.start.p0(i64 4, ptr %12) #10
  store i32 0, ptr %12, align 4, !tbaa !28
  br label %17

17:                                               ; preds = %41, %4
  %18 = load i32, ptr %12, align 4, !tbaa !28
  %19 = sext i32 %18 to i64
  %20 = getelementptr inbounds [12 x %struct.RTSPStatusMessage], ptr @status_messages, i64 0, i64 %19
  %21 = getelementptr inbounds nuw %struct.RTSPStatusMessage, ptr %20, i32 0, i32 0
  %22 = load i32, ptr %21, align 16, !tbaa !53
  %23 = icmp ne i32 %22, 0
  br i1 %23, label %24, label %44

24:                                               ; preds = %17
  %25 = load i32, ptr %12, align 4, !tbaa !28
  %26 = sext i32 %25 to i64
  %27 = getelementptr inbounds [12 x %struct.RTSPStatusMessage], ptr @status_messages, i64 0, i64 %26
  %28 = getelementptr inbounds nuw %struct.RTSPStatusMessage, ptr %27, i32 0, i32 0
  %29 = load i32, ptr %28, align 16, !tbaa !53
  %30 = load i32, ptr %7, align 4, !tbaa !28
  %31 = icmp eq i32 %29, %30
  br i1 %31, label %32, label %41

32:                                               ; preds = %24
  %33 = getelementptr inbounds [4096 x i8], ptr %11, i64 0, i64 0
  %34 = load i32, ptr %7, align 4, !tbaa !28
  %35 = load i32, ptr %12, align 4, !tbaa !28
  %36 = sext i32 %35 to i64
  %37 = getelementptr inbounds [12 x %struct.RTSPStatusMessage], ptr @status_messages, i64 0, i64 %36
  %38 = getelementptr inbounds nuw %struct.RTSPStatusMessage, ptr %37, i32 0, i32 1
  %39 = load ptr, ptr %38, align 8, !tbaa !55
  %40 = call i32 (ptr, i64, ptr, ...) @snprintf(ptr noundef %33, i64 noundef 4096, ptr noundef @.str.34, i32 noundef %34, ptr noundef %39) #10
  br label %44

41:                                               ; preds = %24
  %42 = load i32, ptr %12, align 4, !tbaa !28
  %43 = add nsw i32 %42, 1
  store i32 %43, ptr %12, align 4, !tbaa !28
  br label %17, !llvm.loop !56

44:                                               ; preds = %32, %17
  %45 = load i32, ptr %12, align 4, !tbaa !28
  %46 = sext i32 %45 to i64
  %47 = getelementptr inbounds [12 x %struct.RTSPStatusMessage], ptr @status_messages, i64 0, i64 %46
  %48 = getelementptr inbounds nuw %struct.RTSPStatusMessage, ptr %47, i32 0, i32 0
  %49 = load i32, ptr %48, align 16, !tbaa !53
  %50 = icmp ne i32 %49, 0
  br i1 %50, label %52, label %51

51:                                               ; preds = %44
  store i32 -22, ptr %5, align 4
  store i32 1, ptr %13, align 4
  br label %78

52:                                               ; preds = %44
  %53 = getelementptr inbounds [4096 x i8], ptr %11, i64 0, i64 0
  %54 = load i16, ptr %9, align 2, !tbaa !51
  %55 = zext i16 %54 to i32
  %56 = call i64 (ptr, i64, ptr, ...) @av_strlcatf(ptr noundef %53, i64 noundef 4096, ptr noundef @.str.35, i32 noundef %55)
  %57 = getelementptr inbounds [4096 x i8], ptr %11, i64 0, i64 0
  %58 = call i64 (ptr, i64, ptr, ...) @av_strlcatf(ptr noundef %57, i64 noundef 4096, ptr noundef @.str.36, ptr noundef @.str.37)
  %59 = load ptr, ptr %8, align 8, !tbaa !40
  %60 = icmp ne ptr %59, null
  br i1 %60, label %61, label %65

61:                                               ; preds = %52
  %62 = getelementptr inbounds [4096 x i8], ptr %11, i64 0, i64 0
  %63 = load ptr, ptr %8, align 8, !tbaa !40
  %64 = call i64 @av_strlcat(ptr noundef %62, ptr noundef %63, i64 noundef 4096)
  br label %65

65:                                               ; preds = %61, %52
  %66 = getelementptr inbounds [4096 x i8], ptr %11, i64 0, i64 0
  %67 = call i64 @av_strlcat(ptr noundef %66, ptr noundef @.str.38, i64 noundef 4096)
  %68 = load ptr, ptr %6, align 8, !tbaa !4
  %69 = getelementptr inbounds [4096 x i8], ptr %11, i64 0, i64 0
  call void (ptr, i32, ptr, ...) @av_log(ptr noundef %68, i32 noundef 56, ptr noundef @.str.39, ptr noundef %69)
  %70 = load ptr, ptr %10, align 8, !tbaa !26
  %71 = getelementptr inbounds nuw %struct.RTSPState, ptr %70, i32 0, i32 28
  %72 = load ptr, ptr %71, align 8, !tbaa !57
  %73 = getelementptr inbounds [4096 x i8], ptr %11, i64 0, i64 0
  %74 = getelementptr inbounds [4096 x i8], ptr %11, i64 0, i64 0
  %75 = call i64 @strlen(ptr noundef %74) #11
  %76 = trunc i64 %75 to i32
  %77 = call i32 @ffurl_write(ptr noundef %72, ptr noundef %73, i32 noundef %76)
  store i32 0, ptr %5, align 4
  store i32 1, ptr %13, align 4
  br label %78

78:                                               ; preds = %65, %51
  call void @llvm.lifetime.end.p0(i64 4, ptr %12) #10
  call void @llvm.lifetime.end.p0(i64 4096, ptr %11) #10
  call void @llvm.lifetime.end.p0(i64 8, ptr %10) #10
  %79 = load i32, ptr %5, align 4
  ret i32 %79
}