; Function Attrs: nounwind uwtable
define internal fastcc range(i32 -22, 1) i32 @rtsp_send_reply(ptr noundef %0, i32 noundef range(i32 200, 504) %1, ptr noundef %2, i16 noundef zeroext %3) unnamed_addr #0 {
  %5 = alloca [4096 x i8], align 16
  %6 = getelementptr inbounds nuw i8, ptr %0, i64 24
  %7 = load ptr, ptr %6, align 8, !tbaa !4
  call void @llvm.lifetime.start.p0(i64 4096, ptr nonnull %5) #11
  %8 = icmp eq i32 %1, 200
  br i1 %8, label %._crit_edge, label %.lr.ph

.lr.ph:                                           ; preds = %4, %9
  %indvars.iv25 = phi i64 [ %indvars.iv.next, %9 ], [ 0, %4 ]
  %indvars.iv.next = add nuw nsw i64 %indvars.iv25, 1
  %exitcond = icmp eq i64 %indvars.iv.next, 11
  br i1 %exitcond, label %.thread, label %9, !llvm.loop !42

9:                                                ; preds = %.lr.ph
  %10 = getelementptr inbounds nuw [12 x %struct.RTSPStatusMessage], ptr @status_messages, i64 0, i64 %indvars.iv.next
  %11 = load i32, ptr %10, align 16, !tbaa !43
  %12 = icmp eq i32 %11, %1
  br i1 %12, label %._crit_edge, label %.lr.ph, !llvm.loop !42

._crit_edge:                                      ; preds = %9, %4
  %.lcssa = phi ptr [ @status_messages, %4 ], [ %10, %9 ]
  %13 = getelementptr inbounds nuw i8, ptr %.lcssa, i64 8
  %14 = load ptr, ptr %13, align 8, !tbaa !45
  %15 = call i32 (ptr, i64, ptr, ...) @snprintf(ptr noundef nonnull dereferenceable(1) %5, i64 noundef 4096, ptr noundef nonnull @.str.34, i32 noundef %1, ptr noundef %14) #11
  %16 = zext i16 %3 to i32
  %17 = call i64 (ptr, i64, ptr, ...) @av_strlcatf(ptr noundef nonnull %5, i64 noundef 4096, ptr noundef nonnull @.str.35, i32 noundef %16) #11
  %18 = call i64 (ptr, i64, ptr, ...) @av_strlcatf(ptr noundef nonnull %5, i64 noundef 4096, ptr noundef nonnull @.str.36, ptr noundef nonnull @.str.37) #11
  %.not18 = icmp eq ptr %2, null
  br i1 %.not18, label %21, label %19

19:                                               ; preds = %._crit_edge
  %20 = call i64 @av_strlcat(ptr noundef nonnull %5, ptr noundef nonnull %2, i64 noundef 4096) #11
  br label %21

21:                                               ; preds = %19, %._crit_edge
  %22 = call i64 @av_strlcat(ptr noundef nonnull %5, ptr noundef nonnull @.str.38, i64 noundef 4096) #11
  call void (ptr, i32, ptr, ...) @av_log(ptr noundef %0, i32 noundef 56, ptr noundef nonnull @.str.39, ptr noundef nonnull %5) #11
  %23 = getelementptr inbounds nuw i8, ptr %7, i64 8880
  %24 = load ptr, ptr %23, align 8, !tbaa !46
  %25 = call i64 @strlen(ptr noundef nonnull dereferenceable(1) %5) #12
  %26 = trunc i64 %25 to i32
  %27 = call i32 @ffurl_write2(ptr noundef %24, ptr noundef nonnull %5, i32 noundef %26) #11
  br label %.thread

.thread:                                          ; preds = %.lr.ph, %21
  %.013 = phi i32 [ 0, %21 ], [ -22, %.lr.ph ]
  call void @llvm.lifetime.end.p0(i64 4096, ptr nonnull %5) #11
  ret i32 %.013
}